(lp0
(lp1
(lp2
I7
aI9
aI12
aI13
aI11
aI0
aI6
aI3
aI10
aI5
aI4
aI8
aI2
aI1
aa(lp3
S'Troms\xf8'
p4
aS'\xc5lesund'
p5
aS'Sogndal'
p6
aS'Vang'
p7
aS'Fl\xe5m'
p8
aS'Bergen'
p9
aS'Stavanger'
p10
aS'Kristiansand'
p11
aS'Vinje'
p12
aS'Oslo'
p13
aS'Lillehammer'
p14
aS'Trondheim'
p15
aS'Kirkenes'
p16
aS'Hammerfest'
p17
aaI6028
aa(lp18
(lp19
I7
aI1
aI2
aI9
aI12
aI13
aI11
aI0
aI6
aI3
aI10
aI5
aI4
aI8
aa(lp20
S'Troms\xf8'
p21
aS'Hammerfest'
p22
aS'Kirkenes'
p23
aS'\xc5lesund'
p24
aS'Sogndal'
p25
aS'Vang'
p26
aS'Fl\xe5m'
p27
aS'Bergen'
p28
aS'Stavanger'
p29
aS'Kristiansand'
p30
aS'Vinje'
p31
aS'Oslo'
p32
aS'Lillehammer'
p33
aS'Trondheim'
p34
aaI6028
aa(lp35
(lp36
I2
aI1
aI7
aI8
aI9
aI13
aI11
aI12
aI0
aI6
aI3
aI10
aI5
aI4
aa(lp37
S'Kirkenes'
p38
aS'Hammerfest'
p39
aS'Troms\xf8'
p40
aS'Trondheim'
p41
aS'\xc5lesund'
p42
aS'Vang'
p43
aS'Fl\xe5m'
p44
aS'Sogndal'
p45
aS'Bergen'
p46
aS'Stavanger'
p47
aS'Kristiansand'
p48
aS'Vinje'
p49
aS'Oslo'
p50
aS'Lillehammer'
p51
aaI6029
aa(lp52
(lp53
I1
aI7
aI8
aI9
aI13
aI11
aI12
aI0
aI6
aI3
aI10
aI5
aI4
aI2
aa(lp54
S'Hammerfest'
p55
aS'Troms\xf8'
p56
aS'Trondheim'
p57
aS'\xc5lesund'
p58
aS'Vang'
p59
aS'Fl\xe5m'
p60
aS'Sogndal'
p61
aS'Bergen'
p62
aS'Stavanger'
p63
aS'Kristiansand'
p64
aS'Vinje'
p65
aS'Oslo'
p66
aS'Lillehammer'
p67
aS'Kirkenes'
p68
aaI6029
aa(lp69
(lp70
I8
aI9
aI12
aI13
aI11
aI0
aI6
aI3
aI10
aI5
aI4
aI7
aI1
aI2
aa(lp71
S'Trondheim'
p72
aS'\xc5lesund'
p73
aS'Sogndal'
p74
aS'Vang'
p75
aS'Fl\xe5m'
p76
aS'Bergen'
p77
aS'Stavanger'
p78
aS'Kristiansand'
p79
aS'Vinje'
p80
aS'Oslo'
p81
aS'Lillehammer'
p82
aS'Troms\xf8'
p83
aS'Hammerfest'
p84
aS'Kirkenes'
p85
aaI6029
aa(lp86
(lp87
I1
aI7
aI8
aI9
aI12
aI13
aI11
aI0
aI6
aI3
aI10
aI5
aI4
aI2
aa(lp88
S'Hammerfest'
p89
aS'Troms\xf8'
p90
aS'Trondheim'
p91
aS'\xc5lesund'
p92
aS'Sogndal'
p93
aS'Vang'
p94
aS'Fl\xe5m'
p95
aS'Bergen'
p96
aS'Stavanger'
p97
aS'Kristiansand'
p98
aS'Vinje'
p99
aS'Oslo'
p100
aS'Lillehammer'
p101
aS'Kirkenes'
p102
aaI5942
aa(lp103
(lp104
I2
aI1
aI7
aI8
aI9
aI13
aI12
aI11
aI0
aI6
aI3
aI10
aI5
aI4
aa(lp105
S'Kirkenes'
p106
aS'Hammerfest'
p107
aS'Troms\xf8'
p108
aS'Trondheim'
p109
aS'\xc5lesund'
p110
aS'Vang'
p111
aS'Sogndal'
p112
aS'Fl\xe5m'
p113
aS'Bergen'
p114
aS'Stavanger'
p115
aS'Kristiansand'
p116
aS'Vinje'
p117
aS'Oslo'
p118
aS'Lillehammer'
p119
aaI5979
aa(lp120
(lp121
I7
aI1
aI2
aI8
aI9
aI13
aI12
aI11
aI0
aI6
aI3
aI10
aI5
aI4
aa(lp122
S'Troms\xf8'
p123
aS'Hammerfest'
p124
aS'Kirkenes'
p125
aS'Trondheim'
p126
aS'\xc5lesund'
p127
aS'Vang'
p128
aS'Sogndal'
p129
aS'Fl\xe5m'
p130
aS'Bergen'
p131
aS'Stavanger'
p132
aS'Kristiansand'
p133
aS'Vinje'
p134
aS'Oslo'
p135
aS'Lillehammer'
p136
aaI6066
aa(lp137
(lp138
I5
aI4
aI13
aI12
aI11
aI10
aI3
aI6
aI0
aI9
aI8
aI7
aI1
aI2
aa(lp139
S'Oslo'
p140
aS'Lillehammer'
p141
aS'Vang'
p142
aS'Sogndal'
p143
aS'Fl\xe5m'
p144
aS'Vinje'
p145
aS'Kristiansand'
p146
aS'Stavanger'
p147
aS'Bergen'
p148
aS'\xc5lesund'
p149
aS'Trondheim'
p150
aS'Troms\xf8'
p151
aS'Hammerfest'
p152
aS'Kirkenes'
p153
aaI6128
aa(lp154
(lp155
I9
aI12
aI13
aI11
aI0
aI6
aI3
aI10
aI5
aI4
aI8
aI7
aI1
aI2
aa(lp156
S'\xc5lesund'
p157
aS'Sogndal'
p158
aS'Vang'
p159
aS'Fl\xe5m'
p160
aS'Bergen'
p161
aS'Stavanger'
p162
aS'Kristiansand'
p163
aS'Vinje'
p164
aS'Oslo'
p165
aS'Lillehammer'
p166
aS'Trondheim'
p167
aS'Troms\xf8'
p168
aS'Hammerfest'
p169
aS'Kirkenes'
p170
aaI6028
aa(lp171
(lp172
I8
aI9
aI13
aI12
aI11
aI0
aI6
aI3
aI10
aI5
aI4
aI7
aI1
aI2
aa(lp173
S'Trondheim'
p174
aS'\xc5lesund'
p175
aS'Vang'
p176
aS'Sogndal'
p177
aS'Fl\xe5m'
p178
aS'Bergen'
p179
aS'Stavanger'
p180
aS'Kristiansand'
p181
aS'Vinje'
p182
aS'Oslo'
p183
aS'Lillehammer'
p184
aS'Troms\xf8'
p185
aS'Hammerfest'
p186
aS'Kirkenes'
p187
aaI6066
aa(lp188
(lp189
I2
aI9
aI12
aI13
aI11
aI0
aI6
aI3
aI10
aI5
aI4
aI8
aI7
aI1
aa(lp190
S'Kirkenes'
p191
aS'\xc5lesund'
p192
aS'Sogndal'
p193
aS'Vang'
p194
aS'Fl\xe5m'
p195
aS'Bergen'
p196
aS'Stavanger'
p197
aS'Kristiansand'
p198
aS'Vinje'
p199
aS'Oslo'
p200
aS'Lillehammer'
p201
aS'Trondheim'
p202
aS'Troms\xf8'
p203
aS'Hammerfest'
p204
aaI6028
aa(lp205
(lp206
I7
aI8
aI9
aI13
aI12
aI11
aI0
aI6
aI3
aI10
aI5
aI4
aI2
aI1
aa(lp207
S'Troms\xf8'
p208
aS'Trondheim'
p209
aS'\xc5lesund'
p210
aS'Vang'
p211
aS'Sogndal'
p212
aS'Fl\xe5m'
p213
aS'Bergen'
p214
aS'Stavanger'
p215
aS'Kristiansand'
p216
aS'Vinje'
p217
aS'Oslo'
p218
aS'Lillehammer'
p219
aS'Kirkenes'
p220
aS'Hammerfest'
p221
aaI5979
aa(lp222
(lp223
I1
aI7
aI9
aI12
aI13
aI11
aI0
aI6
aI3
aI10
aI5
aI4
aI8
aI2
aa(lp224
S'Hammerfest'
p225
aS'Troms\xf8'
p226
aS'\xc5lesund'
p227
aS'Sogndal'
p228
aS'Vang'
p229
aS'Fl\xe5m'
p230
aS'Bergen'
p231
aS'Stavanger'
p232
aS'Kristiansand'
p233
aS'Vinje'
p234
aS'Oslo'
p235
aS'Lillehammer'
p236
aS'Trondheim'
p237
aS'Kirkenes'
p238
aaI6028
aa(lp239
(lp240
I6
aI0
aI13
aI11
aI12
aI9
aI8
aI7
aI1
aI2
aI4
aI5
aI10
aI3
aa(lp241
S'Stavanger'
p242
aS'Bergen'
p243
aS'Vang'
p244
aS'Fl\xe5m'
p245
aS'Sogndal'
p246
aS'\xc5lesund'
p247
aS'Trondheim'
p248
aS'Troms\xf8'
p249
aS'Hammerfest'
p250
aS'Kirkenes'
p251
aS'Lillehammer'
p252
aS'Oslo'
p253
aS'Vinje'
p254
aS'Kristiansand'
p255
aaI5986
aa(lp256
(lp257
I2
aI1
aI7
aI8
aI9
aI12
aI13
aI11
aI0
aI6
aI3
aI10
aI5
aI4
aa(lp258
S'Kirkenes'
p259
aS'Hammerfest'
p260
aS'Troms\xf8'
p261
aS'Trondheim'
p262
aS'\xc5lesund'
p263
aS'Sogndal'
p264
aS'Vang'
p265
aS'Fl\xe5m'
p266
aS'Bergen'
p267
aS'Stavanger'
p268
aS'Kristiansand'
p269
aS'Vinje'
p270
aS'Oslo'
p271
aS'Lillehammer'
p272
aaI5942
aa(lp273
(lp274
I7
aI1
aI2
aI9
aI13
aI12
aI11
aI0
aI6
aI3
aI10
aI5
aI4
aI8
aa(lp275
S'Troms\xf8'
p276
aS'Hammerfest'
p277
aS'Kirkenes'
p278
aS'\xc5lesund'
p279
aS'Vang'
p280
aS'Sogndal'
p281
aS'Fl\xe5m'
p282
aS'Bergen'
p283
aS'Stavanger'
p284
aS'Kristiansand'
p285
aS'Vinje'
p286
aS'Oslo'
p287
aS'Lillehammer'
p288
aS'Trondheim'
p289
aaI6065
aa(lp290
(lp291
I2
aI1
aI7
aI9
aI13
aI12
aI11
aI0
aI6
aI3
aI10
aI5
aI4
aI8
aa(lp292
S'Kirkenes'
p293
aS'Hammerfest'
p294
aS'Troms\xf8'
p295
aS'\xc5lesund'
p296
aS'Vang'
p297
aS'Sogndal'
p298
aS'Fl\xe5m'
p299
aS'Bergen'
p300
aS'Stavanger'
p301
aS'Kristiansand'
p302
aS'Vinje'
p303
aS'Oslo'
p304
aS'Lillehammer'
p305
aS'Trondheim'
p306
aaI6065
aa(lp307
(lp308
I9
aI13
aI12
aI11
aI0
aI6
aI3
aI10
aI5
aI4
aI8
aI7
aI1
aI2
aa(lp309
S'\xc5lesund'
p310
aS'Vang'
p311
aS'Sogndal'
p312
aS'Fl\xe5m'
p313
aS'Bergen'
p314
aS'Stavanger'
p315
aS'Kristiansand'
p316
aS'Vinje'
p317
aS'Oslo'
p318
aS'Lillehammer'
p319
aS'Trondheim'
p320
aS'Troms\xf8'
p321
aS'Hammerfest'
p322
aS'Kirkenes'
p323
aaI6065
aa(lp324
(lp325
I1
aI7
aI9
aI13
aI12
aI11
aI0
aI6
aI3
aI10
aI5
aI4
aI8
aI2
aa(lp326
S'Hammerfest'
p327
aS'Troms\xf8'
p328
aS'\xc5lesund'
p329
aS'Vang'
p330
aS'Sogndal'
p331
aS'Fl\xe5m'
p332
aS'Bergen'
p333
aS'Stavanger'
p334
aS'Kristiansand'
p335
aS'Vinje'
p336
aS'Oslo'
p337
aS'Lillehammer'
p338
aS'Trondheim'
p339
aS'Kirkenes'
p340
aaI6065
aa(lp341
(lp342
I7
aI13
aI12
aI11
aI0
aI6
aI3
aI10
aI5
aI4
aI9
aI8
aI2
aI1
aa(lp343
S'Troms\xf8'
p344
aS'Vang'
p345
aS'Sogndal'
p346
aS'Fl\xe5m'
p347
aS'Bergen'
p348
aS'Stavanger'
p349
aS'Kristiansand'
p350
aS'Vinje'
p351
aS'Oslo'
p352
aS'Lillehammer'
p353
aS'\xc5lesund'
p354
aS'Trondheim'
p355
aS'Kirkenes'
p356
aS'Hammerfest'
p357
aaI6138
aa(lp358
(lp359
I0
aI11
aI12
aI13
aI4
aI9
aI8
aI7
aI1
aI2
aI5
aI10
aI3
aI6
aa(lp360
S'Bergen'
p361
aS'Fl\xe5m'
p362
aS'Sogndal'
p363
aS'Vang'
p364
aS'Lillehammer'
p365
aS'\xc5lesund'
p366
aS'Trondheim'
p367
aS'Troms\xf8'
p368
aS'Hammerfest'
p369
aS'Kirkenes'
p370
aS'Oslo'
p371
aS'Vinje'
p372
aS'Kristiansand'
p373
aS'Stavanger'
p374
aaI6018
aa(lp375
(lp376
I8
aI9
aI13
aI11
aI12
aI0
aI6
aI3
aI10
aI5
aI4
aI7
aI1
aI2
aa(lp377
S'Trondheim'
p378
aS'\xc5lesund'
p379
aS'Vang'
p380
aS'Fl\xe5m'
p381
aS'Sogndal'
p382
aS'Bergen'
p383
aS'Stavanger'
p384
aS'Kristiansand'
p385
aS'Vinje'
p386
aS'Oslo'
p387
aS'Lillehammer'
p388
aS'Troms\xf8'
p389
aS'Hammerfest'
p390
aS'Kirkenes'
p391
aaI6116
aa(lp392
(lp393
I10
aI3
aI6
aI0
aI11
aI12
aI13
aI4
aI9
aI8
aI7
aI1
aI2
aI5
aa(lp394
S'Vinje'
p395
aS'Kristiansand'
p396
aS'Stavanger'
p397
aS'Bergen'
p398
aS'Fl\xe5m'
p399
aS'Sogndal'
p400
aS'Vang'
p401
aS'Lillehammer'
p402
aS'\xc5lesund'
p403
aS'Trondheim'
p404
aS'Troms\xf8'
p405
aS'Hammerfest'
p406
aS'Kirkenes'
p407
aS'Oslo'
p408
aaI6018
aa(lp409
(lp410
I2
aI8
aI9
aI12
aI13
aI11
aI0
aI6
aI3
aI10
aI5
aI4
aI7
aI1
aa(lp411
S'Kirkenes'
p412
aS'Trondheim'
p413
aS'\xc5lesund'
p414
aS'Sogndal'
p415
aS'Vang'
p416
aS'Fl\xe5m'
p417
aS'Bergen'
p418
aS'Stavanger'
p419
aS'Kristiansand'
p420
aS'Vinje'
p421
aS'Oslo'
p422
aS'Lillehammer'
p423
aS'Troms\xf8'
p424
aS'Hammerfest'
p425
aaI6029
aa(lp426
(lp427
I7
aI1
aI2
aI8
aI9
aI12
aI13
aI11
aI0
aI6
aI3
aI10
aI5
aI4
aa(lp428
S'Troms\xf8'
p429
aS'Hammerfest'
p430
aS'Kirkenes'
p431
aS'Trondheim'
p432
aS'\xc5lesund'
p433
aS'Sogndal'
p434
aS'Vang'
p435
aS'Fl\xe5m'
p436
aS'Bergen'
p437
aS'Stavanger'
p438
aS'Kristiansand'
p439
aS'Vinje'
p440
aS'Oslo'
p441
aS'Lillehammer'
p442
aaI6029
aa(lp443
(lp444
I8
aI13
aI12
aI11
aI0
aI6
aI3
aI10
aI5
aI4
aI9
aI7
aI1
aI2
aa(lp445
S'Trondheim'
p446
aS'Vang'
p447
aS'Sogndal'
p448
aS'Fl\xe5m'
p449
aS'Bergen'
p450
aS'Stavanger'
p451
aS'Kristiansand'
p452
aS'Vinje'
p453
aS'Oslo'
p454
aS'Lillehammer'
p455
aS'\xc5lesund'
p456
aS'Troms\xf8'
p457
aS'Hammerfest'
p458
aS'Kirkenes'
p459
aaI6137
aa(lp460
(lp461
I1
aI7
aI9
aI13
aI11
aI12
aI0
aI6
aI3
aI10
aI5
aI4
aI8
aI2
aa(lp462
S'Hammerfest'
p463
aS'Troms\xf8'
p464
aS'\xc5lesund'
p465
aS'Vang'
p466
aS'Fl\xe5m'
p467
aS'Sogndal'
p468
aS'Bergen'
p469
aS'Stavanger'
p470
aS'Kristiansand'
p471
aS'Vinje'
p472
aS'Oslo'
p473
aS'Lillehammer'
p474
aS'Trondheim'
p475
aS'Kirkenes'
p476
aaI6115
aa(lp477
(lp478
I7
aI8
aI9
aI13
aI11
aI12
aI0
aI6
aI3
aI10
aI5
aI4
aI2
aI1
aa(lp479
S'Troms\xf8'
p480
aS'Trondheim'
p481
aS'\xc5lesund'
p482
aS'Vang'
p483
aS'Fl\xe5m'
p484
aS'Sogndal'
p485
aS'Bergen'
p486
aS'Stavanger'
p487
aS'Kristiansand'
p488
aS'Vinje'
p489
aS'Oslo'
p490
aS'Lillehammer'
p491
aS'Kirkenes'
p492
aS'Hammerfest'
p493
aaI6029
aa(lp494
(lp495
I2
aI1
aI7
aI9
aI12
aI13
aI11
aI0
aI6
aI3
aI10
aI5
aI4
aI8
aa(lp496
S'Kirkenes'
p497
aS'Hammerfest'
p498
aS'Troms\xf8'
p499
aS'\xc5lesund'
p500
aS'Sogndal'
p501
aS'Vang'
p502
aS'Fl\xe5m'
p503
aS'Bergen'
p504
aS'Stavanger'
p505
aS'Kristiansand'
p506
aS'Vinje'
p507
aS'Oslo'
p508
aS'Lillehammer'
p509
aS'Trondheim'
p510
aaI6028
aa(lp511
(lp512
I3
aI6
aI0
aI11
aI12
aI13
aI4
aI9
aI8
aI7
aI1
aI2
aI5
aI10
aa(lp513
S'Kristiansand'
p514
aS'Stavanger'
p515
aS'Bergen'
p516
aS'Fl\xe5m'
p517
aS'Sogndal'
p518
aS'Vang'
p519
aS'Lillehammer'
p520
aS'\xc5lesund'
p521
aS'Trondheim'
p522
aS'Troms\xf8'
p523
aS'Hammerfest'
p524
aS'Kirkenes'
p525
aS'Oslo'
p526
aS'Vinje'
p527
aaI6018
aa(lp528
(lp529
I7
aI8
aI9
aI12
aI13
aI11
aI0
aI6
aI3
aI10
aI5
aI4
aI2
aI1
aa(lp530
S'Troms\xf8'
p531
aS'Trondheim'
p532
aS'\xc5lesund'
p533
aS'Sogndal'
p534
aS'Vang'
p535
aS'Fl\xe5m'
p536
aS'Bergen'
p537
aS'Stavanger'
p538
aS'Kristiansand'
p539
aS'Vinje'
p540
aS'Oslo'
p541
aS'Lillehammer'
p542
aS'Kirkenes'
p543
aS'Hammerfest'
p544
aaI5942
aa(lp545
(lp546
I11
aI12
aI13
aI4
aI9
aI8
aI7
aI1
aI2
aI5
aI10
aI3
aI6
aI0
aa(lp547
S'Fl\xe5m'
p548
aS'Sogndal'
p549
aS'Vang'
p550
aS'Lillehammer'
p551
aS'\xc5lesund'
p552
aS'Trondheim'
p553
aS'Troms\xf8'
p554
aS'Hammerfest'
p555
aS'Kirkenes'
p556
aS'Oslo'
p557
aS'Vinje'
p558
aS'Kristiansand'
p559
aS'Stavanger'
p560
aS'Bergen'
p561
aaI6018
aa(lp562
(lp563
I1
aI7
aI8
aI9
aI13
aI12
aI11
aI0
aI6
aI3
aI10
aI5
aI4
aI2
aa(lp564
S'Hammerfest'
p565
aS'Troms\xf8'
p566
aS'Trondheim'
p567
aS'\xc5lesund'
p568
aS'Vang'
p569
aS'Sogndal'
p570
aS'Fl\xe5m'
p571
aS'Bergen'
p572
aS'Stavanger'
p573
aS'Kristiansand'
p574
aS'Vinje'
p575
aS'Oslo'
p576
aS'Lillehammer'
p577
aS'Kirkenes'
p578
aaI5979
aa(lp579
(lp580
I2
aI1
aI7
aI8
aI9
aI12
aI13
aI11
aI0
aI10
aI6
aI3
aI5
aI4
aa(lp581
S'Kirkenes'
p582
aS'Hammerfest'
p583
aS'Troms\xf8'
p584
aS'Trondheim'
p585
aS'\xc5lesund'
p586
aS'Sogndal'
p587
aS'Vang'
p588
aS'Fl\xe5m'
p589
aS'Bergen'
p590
aS'Vinje'
p591
aS'Stavanger'
p592
aS'Kristiansand'
p593
aS'Oslo'
p594
aS'Lillehammer'
p595
aaI6113
aa(lp596
(lp597
I2
aI9
aI13
aI12
aI11
aI0
aI6
aI3
aI10
aI5
aI4
aI8
aI7
aI1
aa(lp598
S'Kirkenes'
p599
aS'\xc5lesund'
p600
aS'Vang'
p601
aS'Sogndal'
p602
aS'Fl\xe5m'
p603
aS'Bergen'
p604
aS'Stavanger'
p605
aS'Kristiansand'
p606
aS'Vinje'
p607
aS'Oslo'
p608
aS'Lillehammer'
p609
aS'Trondheim'
p610
aS'Troms\xf8'
p611
aS'Hammerfest'
p612
aaI6065
aa(lp613
(lp614
I2
aI8
aI9
aI13
aI12
aI11
aI0
aI6
aI3
aI10
aI5
aI4
aI7
aI1
aa(lp615
S'Kirkenes'
p616
aS'Trondheim'
p617
aS'\xc5lesund'
p618
aS'Vang'
p619
aS'Sogndal'
p620
aS'Fl\xe5m'
p621
aS'Bergen'
p622
aS'Stavanger'
p623
aS'Kristiansand'
p624
aS'Vinje'
p625
aS'Oslo'
p626
aS'Lillehammer'
p627
aS'Troms\xf8'
p628
aS'Hammerfest'
p629
aaI6066
aa(lp630
(lp631
I7
aI9
aI13
aI12
aI11
aI0
aI6
aI3
aI10
aI5
aI4
aI8
aI2
aI1
aa(lp632
S'Troms\xf8'
p633
aS'\xc5lesund'
p634
aS'Vang'
p635
aS'Sogndal'
p636
aS'Fl\xe5m'
p637
aS'Bergen'
p638
aS'Stavanger'
p639
aS'Kristiansand'
p640
aS'Vinje'
p641
aS'Oslo'
p642
aS'Lillehammer'
p643
aS'Trondheim'
p644
aS'Kirkenes'
p645
aS'Hammerfest'
p646
aaI6065
aa(lp647
(lp648
I2
aI8
aI9
aI13
aI11
aI12
aI0
aI6
aI3
aI10
aI5
aI4
aI7
aI1
aa(lp649
S'Kirkenes'
p650
aS'Trondheim'
p651
aS'\xc5lesund'
p652
aS'Vang'
p653
aS'Fl\xe5m'
p654
aS'Sogndal'
p655
aS'Bergen'
p656
aS'Stavanger'
p657
aS'Kristiansand'
p658
aS'Vinje'
p659
aS'Oslo'
p660
aS'Lillehammer'
p661
aS'Troms\xf8'
p662
aS'Hammerfest'
p663
aaI6116
aa(lp664
(lp665
I8
aI13
aI12
aI11
aI0
aI6
aI3
aI10
aI5
aI4
aI9
aI2
aI1
aI7
aa(lp666
S'Trondheim'
p667
aS'Vang'
p668
aS'Sogndal'
p669
aS'Fl\xe5m'
p670
aS'Bergen'
p671
aS'Stavanger'
p672
aS'Kristiansand'
p673
aS'Vinje'
p674
aS'Oslo'
p675
aS'Lillehammer'
p676
aS'\xc5lesund'
p677
aS'Kirkenes'
p678
aS'Hammerfest'
p679
aS'Troms\xf8'
p680
aaI6137
aa(lp681
(lp682
I9
aI13
aI11
aI12
aI0
aI6
aI3
aI10
aI5
aI4
aI8
aI7
aI1
aI2
aa(lp683
S'\xc5lesund'
p684
aS'Vang'
p685
aS'Fl\xe5m'
p686
aS'Sogndal'
p687
aS'Bergen'
p688
aS'Stavanger'
p689
aS'Kristiansand'
p690
aS'Vinje'
p691
aS'Oslo'
p692
aS'Lillehammer'
p693
aS'Trondheim'
p694
aS'Troms\xf8'
p695
aS'Hammerfest'
p696
aS'Kirkenes'
p697
aaI6115
aa(lp698
(lp699
I2
aI1
aI7
aI9
aI13
aI11
aI12
aI0
aI6
aI3
aI10
aI5
aI4
aI8
aa(lp700
S'Kirkenes'
p701
aS'Hammerfest'
p702
aS'Troms\xf8'
p703
aS'\xc5lesund'
p704
aS'Vang'
p705
aS'Fl\xe5m'
p706
aS'Sogndal'
p707
aS'Bergen'
p708
aS'Stavanger'
p709
aS'Kristiansand'
p710
aS'Vinje'
p711
aS'Oslo'
p712
aS'Lillehammer'
p713
aS'Trondheim'
p714
aaI6115
aa(lp715
(lp716
I7
aI1
aI2
aI9
aI13
aI11
aI12
aI0
aI6
aI3
aI10
aI5
aI4
aI8
aa(lp717
S'Troms\xf8'
p718
aS'Hammerfest'
p719
aS'Kirkenes'
p720
aS'\xc5lesund'
p721
aS'Vang'
p722
aS'Fl\xe5m'
p723
aS'Sogndal'
p724
aS'Bergen'
p725
aS'Stavanger'
p726
aS'Kristiansand'
p727
aS'Vinje'
p728
aS'Oslo'
p729
aS'Lillehammer'
p730
aS'Trondheim'
p731
aaI6115
aa(lp732
(lp733
I6
aI0
aI11
aI12
aI13
aI4
aI9
aI8
aI7
aI1
aI2
aI5
aI10
aI3
aa(lp734
S'Stavanger'
p735
aS'Bergen'
p736
aS'Fl\xe5m'
p737
aS'Sogndal'
p738
aS'Vang'
p739
aS'Lillehammer'
p740
aS'\xc5lesund'
p741
aS'Trondheim'
p742
aS'Troms\xf8'
p743
aS'Hammerfest'
p744
aS'Kirkenes'
p745
aS'Oslo'
p746
aS'Vinje'
p747
aS'Kristiansand'
p748
aaI6018
aa(lp749
(lp750
I5
aI4
aI13
aI11
aI12
aI10
aI3
aI6
aI0
aI9
aI8
aI7
aI1
aI2
aa(lp751
S'Oslo'
p752
aS'Lillehammer'
p753
aS'Vang'
p754
aS'Fl\xe5m'
p755
aS'Sogndal'
p756
aS'Vinje'
p757
aS'Kristiansand'
p758
aS'Stavanger'
p759
aS'Bergen'
p760
aS'\xc5lesund'
p761
aS'Trondheim'
p762
aS'Troms\xf8'
p763
aS'Hammerfest'
p764
aS'Kirkenes'
p765
aaI6178
aa(lp766
(lp767
I2
aI9
aI13
aI11
aI12
aI0
aI6
aI3
aI10
aI5
aI4
aI8
aI7
aI1
aa(lp768
S'Kirkenes'
p769
aS'\xc5lesund'
p770
aS'Vang'
p771
aS'Fl\xe5m'
p772
aS'Sogndal'
p773
aS'Bergen'
p774
aS'Stavanger'
p775
aS'Kristiansand'
p776
aS'Vinje'
p777
aS'Oslo'
p778
aS'Lillehammer'
p779
aS'Trondheim'
p780
aS'Troms\xf8'
p781
aS'Hammerfest'
p782
aaI6115
aa(lp783
(lp784
I2
aI1
aI7
aI8
aI9
aI12
aI13
aI11
aI0
aI6
aI10
aI3
aI5
aI4
aa(lp785
S'Kirkenes'
p786
aS'Hammerfest'
p787
aS'Troms\xf8'
p788
aS'Trondheim'
p789
aS'\xc5lesund'
p790
aS'Sogndal'
p791
aS'Vang'
p792
aS'Fl\xe5m'
p793
aS'Bergen'
p794
aS'Stavanger'
p795
aS'Vinje'
p796
aS'Kristiansand'
p797
aS'Oslo'
p798
aS'Lillehammer'
p799
aaI6030
aa(lp800
(lp801
I7
aI9
aI13
aI11
aI12
aI0
aI6
aI3
aI10
aI5
aI4
aI8
aI2
aI1
aa(lp802
S'Troms\xf8'
p803
aS'\xc5lesund'
p804
aS'Vang'
p805
aS'Fl\xe5m'
p806
aS'Sogndal'
p807
aS'Bergen'
p808
aS'Stavanger'
p809
aS'Kristiansand'
p810
aS'Vinje'
p811
aS'Oslo'
p812
aS'Lillehammer'
p813
aS'Trondheim'
p814
aS'Kirkenes'
p815
aS'Hammerfest'
p816
aaI6115
aa(lp817
(lp818
I7
aI1
aI2
aI8
aI9
aI13
aI11
aI12
aI0
aI6
aI3
aI10
aI5
aI4
aa(lp819
S'Troms\xf8'
p820
aS'Hammerfest'
p821
aS'Kirkenes'
p822
aS'Trondheim'
p823
aS'\xc5lesund'
p824
aS'Vang'
p825
aS'Fl\xe5m'
p826
aS'Sogndal'
p827
aS'Bergen'
p828
aS'Stavanger'
p829
aS'Kristiansand'
p830
aS'Vinje'
p831
aS'Oslo'
p832
aS'Lillehammer'
p833
aaI6116
aa(lp834
(lp835
I13
aI12
aI11
aI0
aI6
aI3
aI10
aI5
aI4
aI9
aI8
aI7
aI1
aI2
aa(lp836
S'Vang'
p837
aS'Sogndal'
p838
aS'Fl\xe5m'
p839
aS'Bergen'
p840
aS'Stavanger'
p841
aS'Kristiansand'
p842
aS'Vinje'
p843
aS'Oslo'
p844
aS'Lillehammer'
p845
aS'\xc5lesund'
p846
aS'Trondheim'
p847
aS'Troms\xf8'
p848
aS'Hammerfest'
p849
aS'Kirkenes'
p850
aaI6138
aa(lp851
(lp852
I2
aI1
aI7
aI8
aI9
aI4
aI13
aI12
aI11
aI0
aI6
aI3
aI10
aI5
aa(lp853
S'Kirkenes'
p854
aS'Hammerfest'
p855
aS'Troms\xf8'
p856
aS'Trondheim'
p857
aS'\xc5lesund'
p858
aS'Lillehammer'
p859
aS'Vang'
p860
aS'Sogndal'
p861
aS'Fl\xe5m'
p862
aS'Bergen'
p863
aS'Stavanger'
p864
aS'Kristiansand'
p865
aS'Vinje'
p866
aS'Oslo'
p867
aaI6041
aa(lp868
(lp869
I1
aI7
aI13
aI12
aI11
aI0
aI6
aI3
aI10
aI5
aI4
aI9
aI8
aI2
aa(lp870
S'Hammerfest'
p871
aS'Troms\xf8'
p872
aS'Vang'
p873
aS'Sogndal'
p874
aS'Fl\xe5m'
p875
aS'Bergen'
p876
aS'Stavanger'
p877
aS'Kristiansand'
p878
aS'Vinje'
p879
aS'Oslo'
p880
aS'Lillehammer'
p881
aS'\xc5lesund'
p882
aS'Trondheim'
p883
aS'Kirkenes'
p884
aaI6138
aa(lp885
(lp886
I7
aI8
aI9
aI12
aI13
aI11
aI0
aI10
aI6
aI3
aI5
aI4
aI2
aI1
aa(lp887
S'Troms\xf8'
p888
aS'Trondheim'
p889
aS'\xc5lesund'
p890
aS'Sogndal'
p891
aS'Vang'
p892
aS'Fl\xe5m'
p893
aS'Bergen'
p894
aS'Vinje'
p895
aS'Stavanger'
p896
aS'Kristiansand'
p897
aS'Oslo'
p898
aS'Lillehammer'
p899
aS'Kirkenes'
p900
aS'Hammerfest'
p901
aaI6113
aa(lp902
(lp903
I8
aI9
aI12
aI13
aI11
aI0
aI6
aI10
aI3
aI5
aI4
aI7
aI1
aI2
aa(lp904
S'Trondheim'
p905
aS'\xc5lesund'
p906
aS'Sogndal'
p907
aS'Vang'
p908
aS'Fl\xe5m'
p909
aS'Bergen'
p910
aS'Stavanger'
p911
aS'Vinje'
p912
aS'Kristiansand'
p913
aS'Oslo'
p914
aS'Lillehammer'
p915
aS'Troms\xf8'
p916
aS'Hammerfest'
p917
aS'Kirkenes'
p918
aaI6117
aa(lp919
(lp920
I7
aI1
aI2
aI8
aI13
aI12
aI11
aI0
aI6
aI3
aI10
aI5
aI4
aI9
aa(lp921
S'Troms\xf8'
p922
aS'Hammerfest'
p923
aS'Kirkenes'
p924
aS'Trondheim'
p925
aS'Vang'
p926
aS'Sogndal'
p927
aS'Fl\xe5m'
p928
aS'Bergen'
p929
aS'Stavanger'
p930
aS'Kristiansand'
p931
aS'Vinje'
p932
aS'Oslo'
p933
aS'Lillehammer'
p934
aS'\xc5lesund'
p935
aaI6137
aa(lp936
(lp937
I8
aI9
aI12
aI13
aI11
aI0
aI6
aI3
aI10
aI5
aI4
aI2
aI1
aI7
aa(lp938
S'Trondheim'
p939
aS'\xc5lesund'
p940
aS'Sogndal'
p941
aS'Vang'
p942
aS'Fl\xe5m'
p943
aS'Bergen'
p944
aS'Stavanger'
p945
aS'Kristiansand'
p946
aS'Vinje'
p947
aS'Oslo'
p948
aS'Lillehammer'
p949
aS'Kirkenes'
p950
aS'Hammerfest'
p951
aS'Troms\xf8'
p952
aaI5942
aa(lp953
(lp954
I8
aI9
aI13
aI12
aI11
aI0
aI6
aI3
aI10
aI5
aI4
aI2
aI1
aI7
aa(lp955
S'Trondheim'
p956
aS'\xc5lesund'
p957
aS'Vang'
p958
aS'Sogndal'
p959
aS'Fl\xe5m'
p960
aS'Bergen'
p961
aS'Stavanger'
p962
aS'Kristiansand'
p963
aS'Vinje'
p964
aS'Oslo'
p965
aS'Lillehammer'
p966
aS'Kirkenes'
p967
aS'Hammerfest'
p968
aS'Troms\xf8'
p969
aaI5979
aa.