(lp0
(lp1
I8
aI9
aI11
aI0
aI6
aI3
aI10
aI5
aI4
aI7
aI1
aI2
aa(lp2
S'Trondheim'
p3
aS'\xc5lesund'
p4
aS'Fl\xe5m'
p5
aS'Bergen'
p6
aS'Stavanger'
p7
aS'Kristiansand'
p8
aS'Vinje'
p9
aS'Oslo'
p10
aS'Lillehammer'
p11
aS'Troms\xf8'
p12
aS'Hammerfest'
p13
aS'Kirkenes'
p14
aaI5869
a.